; Function Attrs: mustprogress uwtable
define void @_ZN3zmq22stream_listener_base_t12process_termEi(ptr noundef nonnull align 8 dereferenceable(1520) %0, i32 noundef %1) unnamed_addr #0 align 2 {
  %3 = getelementptr inbounds nuw i8, ptr %0, i64 1448
  %4 = getelementptr inbounds nuw i8, ptr %0, i64 1472
  %5 = load ptr, ptr %4, align 8, !tbaa !65
  tail call void @_ZN3zmq11io_object_t5rm_fdEPv(ptr noundef nonnull align 8 dereferenceable(16) %3, ptr noundef %5)
  store ptr null, ptr %4, align 8, !tbaa !65
  %6 = load ptr, ptr %0, align 8, !tbaa !3
  %7 = getelementptr inbounds nuw i8, ptr %6, i64 200
  %8 = load ptr, ptr %7, align 8
  %9 = tail call noundef i32 %8(ptr noundef nonnull align 8 dereferenceable(1520) %0)
  tail call void @_ZN3zmq5own_t12process_termEi(ptr noundef nonnull align 8 dereferenceable(1444) %0, i32 noundef %1)
  ret void
}